(dp1
S'admin'
p2
(dp3
S'index'
p4
(dp5
S'fields'
p6
(dp7
S'challenges'
p8
S'm711'
p9
sS'skillsets'
p10
S'm755'
p11
sS'users'
p12
g11
sS'groups'
p13
S'm500'
p14
sS'entries'
p15
g9
sS'tags'
p16
g9
sS'tools'
p17
g11
sS'events'
p18
g11
ssS'methods'
p19
(dp20
S'GET'
p21
S'-444'
p22
sssg12
(dp23
g6
(dp24
S'first_name'
p25
S'-660'
p26
sS'last_name'
p27
S'-660'
p28
sS'group'
p29
S'o020'
p30
sS'memberships'
p31
S'm550'
p32
sS'user'
p33
S'o000'
p34
sg15
S'm555'
p35
sS'email'
p36
S'-660'
p37
ssg19
(dp38
S'PUT'
p39
S'-770'
p40
sS'DELETE'
p41
S'-550'
p42
sg21
S'-550'
p43
sssg16
(dp44
g6
(dp45
g29
g34
sS'created_at'
p46
S'-040'
p47
sg8
g35
sg10
g35
sg33
g34
sg15
g35
sS'word'
p48
S'-664'
p49
sS'slug'
p50
S'-060'
p51
ssg19
(dp52
g39
S'-770'
p53
sg21
g43
sg41
S'-550'
p54
sssg31
(dp55
g6
(dp56
S'name'
p57
S'-600'
p58
sS'parent'
p59
g34
ssg19
(dp60
g39
S'-000'
p61
sg41
g61
sg21
S'-500'
p62
sssg10
(dp63
g6
(dp64
g29
S'o700'
p65
sS'title'
p66
S'-660'
p67
sg46
g61
sg50
S'-460'
p68
sg8
S'm775'
p69
sg33
S'o500'
p70
sS'short_description'
p71
S'-660'
p72
sS'long_description'
p73
S'-660'
p74
ssg19
(dp75
g39
S'-570'
p76
sg21
g43
sg41
S'-550'
p77
sssg15
(dp78
g6
(dp79
g29
S'o600'
p80
sg66
S'-664'
p81
sS'challenge'
p82
S'p570'
p83
sS'url_link'
p84
S'-664'
p85
sS'url_title'
p86
S'-664'
p87
sS'caption'
p88
S'-664'
p89
sg33
S'o570'
p90
sS'image'
p91
S'-664'
p92
sg46
S'-444'
p93
ssg19
(dp94
g39
S'-770'
p95
sg21
S'-555'
p96
sg41
S'-550'
p97
sssg8
(dp98
g6
(dp99
g29
S'o760'
p100
sg16
S'm775'
p101
sg46
S'-040'
p102
sg66
S'-660'
p103
sg50
S'-460'
p104
sS'skillset_id'
p105
S'-260'
p106
sS'skillset'
p107
S'p570'
p108
sg33
S'o570'
p109
sg15
S'm775'
p110
sg71
S'-660'
p111
sS'user_id'
p112
S'-260'
p113
sS'group_id'
p114
S'-260'
p115
sg17
S'm775'
p116
sg73
S'-660'
p117
sS'resources'
p118
S'm775'
p119
ssg19
(dp120
g39
S'-770'
p121
sg21
g43
sg41
S'-550'
p122
sssg17
(dp123
g6
(dp124
g29
g34
sg66
S'-664'
p125
sg46
S'-040'
p126
sg84
S'-664'
p127
sg86
S'-664'
p128
sg8
g35
sg33
g34
sg15
g35
sg50
S'-040'
p129
sS'icon'
p130
S'-664'
p131
ssg19
(dp132
g39
S'-770'
p133
sg21
g96
sg41
S'-550'
p134
sssg18
(dp135
g6
(dp136
g33
S'-440'
p137
sg16
g96
sS'modified'
p138
S'-400'
p139
sS'created'
p140
g139
sssg118
(dp141
g6
(dp142
g29
g80
sS'thumb'
p143
S'-664'
p144
sg66
S'-664'
p145
sg46
S'-440'
p146
sg84
S'-644'
p147
sg86
g147
sg33
g80
sg82
S'p664'
p148
sS'description'
p149
S'-664'
p150
ssg19
(dp151
g39
S'-770'
p152
sg21
g96
sg41
S'-550'
p153
ssssS'BASE'
p154
(dp155
g8
(dp156
g6
(dp157
g16
g11
sg33
S'o550'
p158
sg15
g11
sg29
g65
sg17
g11
sg73
S'-640'
p159
sg112
S'-200'
p160
sg66
g159
sg46
g61
sg50
g139
sg105
g160
sg107
S'p550'
p161
sg71
g159
sg114
g160
sg118
g11
ssg19
(dp162
g39
S'-700'
p163
sg41
g62
sg21
g43
sssg4
g5
sg16
(dp164
g6
(dp165
g8
g35
sg10
g35
sg29
g34
sg33
g34
sg15
g35
sg48
g147
sg46
g61
sg50
g61
ssg19
(dp166
g39
g163
sg41
g62
sg21
g43
sssg12
(dp167
g6
(dp168
g25
g159
sg27
g159
sg29
g34
sg31
g32
sg33
g34
sg15
g35
sg36
g159
ssg19
(dp169
g39
g163
sg41
g62
sg21
g43
sssg10
(dp170
g6
(dp171
g8
g11
sg29
g65
sg33
g70
sg66
g159
sg71
g159
sg46
g61
sg73
g159
sg50
g139
ssg19
(dp172
g39
g62
sg41
g62
sg21
g43
sssg31
g55
sg15
(dp173
g6
(dp174
g46
g22
sg88
g147
sg29
g80
sg33
g158
sg66
g147
sg82
g161
sg91
g147
sg86
g147
sg84
g147
ssg19
(dp175
g39
g163
sg41
g62
sg21
g96
sssg17
(dp176
g6
(dp177
g8
g35
sg29
g34
sg33
g34
sg66
g147
sg46
g61
sg130
g147
sg15
g35
sg50
g61
sg84
g147
sg86
g147
ssg19
(dp178
g39
g163
sg41
g62
sg21
g96
sssg18
g135
sg118
(dp179
g6
(dp180
g46
g139
sg29
g80
sg33
g80
sg66
g147
sg143
g147
sg82
S'p644'
p181
sg86
g147
sg84
g147
sg149
g147
ssg19
(dp182
g39
g163
sg41
g62
sg21
g96
ssssS'visd-staff'
p183
(dp184
g4
g5
sg31
g55
sg16
(dp185
g6
(dp186
g29
g34
sg46
S'-040'
p187
sg8
g35
sg10
g35
sg33
g34
sg15
g35
sg48
S'-664'
p188
sg50
S'-060'
p189
ssg19
(dp190
g39
S'-770'
p191
sg21
g43
sg41
S'-550'
p192
sssg8
(dp193
g6
(dp194
g29
S'o760'
p195
sg16
S'm775'
p196
sg46
S'-040'
p197
sg66
S'-660'
p198
sg50
S'-460'
p199
sg105
S'-260'
p200
sg107
S'p570'
p201
sg33
S'o570'
p202
sg15
S'm775'
p203
sg71
S'-660'
p204
sg112
S'-260'
p205
sg114
S'-260'
p206
sg17
S'm775'
p207
sg73
S'-660'
p208
sg118
S'm775'
p209
ssg19
(dp210
g39
S'-770'
p211
sg21
g43
sg41
S'-550'
p212
sssg10
(dp213
g6
(dp214
g29
g65
sg66
S'-660'
p215
sg46
g61
sg50
S'-460'
p216
sg8
S'm775'
p217
sg33
g70
sg71
S'-660'
p218
sg73
S'-660'
p219
ssg19
(dp220
g39
S'-570'
p221
sg21
g43
sg41
S'-550'
p222
sssg15
(dp223
g6
(dp224
g29
g80
sg66
S'-664'
p225
sg82
S'p570'
p226
sg84
S'-664'
p227
sg86
S'-664'
p228
sg88
S'-664'
p229
sg33
S'o570'
p230
sg91
S'-664'
p231
sg46
S'-444'
p232
ssg19
(dp233
g39
S'-770'
p234
sg21
g96
sg41
S'-550'
p235
sssg17
(dp236
g6
(dp237
g29
g34
sg66
S'-664'
p238
sg46
S'-040'
p239
sg84
S'-664'
p240
sg86
S'-664'
p241
sg8
g35
sg33
g34
sg15
g35
sg50
S'-040'
p242
sg130
S'-664'
p243
ssg19
(dp244
g39
S'-770'
p245
sg21
g96
sg41
S'-550'
p246
sssg18
g135
sg118
(dp247
g6
(dp248
g29
g80
sg143
S'-664'
p249
sg66
S'-664'
p250
sg46
S'-440'
p251
sg84
g147
sg86
g147
sg33
g80
sg82
S'p664'
p252
sg149
S'-664'
p253
ssg19
(dp254
g39
S'-770'
p255
sg21
g96
sg41
S'-550'
p256
sssg12
(dp257
g6
(dp258
g25
S'-660'
p259
sg27
S'-660'
p260
sg29
g34
sg31
g32
sg33
g34
sg15
g35
sg36
S'-660'
p261
ssg19
(dp262
g39
S'-770'
p263
sg21
g43
sg41
S'-550'
p264
ssss.