(dp1
S'admin'
p2
(dp3
S'index'
p4
(dp5
S'fields'
p6
(dp7
S'challenges'
p8
S'0711'
p9
sS'skillsets'
p10
S'0755'
p11
sS'users'
p12
g11
sS'groups'
p13
S'0500'
p14
sS'entries'
p15
g9
sS'tags'
p16
g9
sS'tools'
p17
g11
sS'events'
p18
g11
ssS'methods'
p19
(dp20
S'GET'
p21
S'0444'
p22
sssg12
(dp23
g6
(dp24
S'first_name'
p25
S'0660'
p26
sS'last_name'
p27
S'0660'
p28
sS'group'
p29
S'0000'
p30
sS'memberships'
p31
S'0550'
p32
sS'user'
p33
g30
sg15
S'0555'
p34
sS'email'
p35
S'0660'
p36
ssg19
(dp37
S'PUT'
p38
S'0770'
p39
sg21
g32
sS'DELETE'
p40
S'0550'
p41
sssg16
(dp42
g6
(dp43
S'word'
p44
S'0664'
p45
sS'created_at'
p46
S'0040'
p47
sg8
g34
sg10
g34
sg15
g34
sS'slug'
p48
S'0060'
p49
ssg19
(dp50
g38
S'0770'
p51
sg21
g32
sg40
S'0550'
p52
sssg31
(dp53
g6
(dp54
S'name'
p55
S'0600'
p56
sS'parent'
p57
g30
ssg19
(dp58
g38
g30
sg40
g30
sg21
g14
sssg10
(dp59
g6
(dp60
g29
S'0700'
p61
sS'title'
p62
S'0660'
p63
sg46
g30
sg48
S'0460'
p64
sg8
S'0775'
p65
sg33
g14
sS'short_description'
p66
S'0660'
p67
sS'long_description'
p68
S'0660'
p69
ssg19
(dp70
g38
S'0570'
p71
sg21
g32
sg40
S'0550'
p72
sssg15
(dp73
g6
(dp74
g29
g56
sg62
S'0664'
p75
sS'challenge'
p76
S'0570'
p77
sS'url_link'
p78
S'0664'
p79
sS'url_title'
p80
S'0664'
p81
sS'caption'
p82
S'0664'
p83
sg33
S'0570'
p84
sS'image'
p85
S'0664'
p86
sg46
S'0444'
p87
ssg19
(dp88
g38
S'0770'
p89
sg21
g34
sg40
S'0550'
p90
sssg8
(dp91
g6
(dp92
g29
S'0720'
p93
sg16
S'0775'
p94
sg46
S'0040'
p95
sg62
S'0660'
p96
sg48
S'0420'
p97
sS'skillset_id'
p98
S'0220'
p99
sS'skillset'
p100
S'0570'
p101
sg33
S'0570'
p102
sg15
S'0775'
p103
sg66
S'0660'
p104
sS'user_id'
p105
S'0220'
p106
sS'group_id'
p107
S'0220'
p108
sg17
S'0775'
p109
sg68
S'0660'
p110
sS'resources'
p111
S'0775'
p112
ssg19
(dp113
g38
S'0770'
p114
sg21
g32
sg40
S'0550'
p115
sssg17
(dp116
g6
(dp117
g62
S'0664'
p118
sg46
S'0040'
p119
sg78
S'0664'
p120
sg80
S'0664'
p121
sg8
g34
sg15
g34
sg48
S'0040'
p122
sS'icon'
p123
S'0664'
p124
ssg19
(dp125
g38
S'0770'
p126
sg21
g34
sg40
S'0550'
p127
sssg18
(dp128
g6
(dp129
g33
S'0440'
p130
sg16
g34
sS'modified'
p131
S'0400'
p132
sS'created'
p133
g132
sssg111
(dp134
g6
(dp135
g29
g56
sS'thumb'
p136
S'0664'
p137
sg62
S'0664'
p138
sg46
S'0440'
p139
sg78
S'0644'
p140
sg80
g140
sg33
g56
sg76
S'0664'
p141
sS'description'
p142
S'0664'
p143
ssg19
(dp144
g38
S'0770'
p145
sg21
g34
sg40
S'0550'
p146
ssssS'BASE'
p147
(dp148
g8
(dp149
g6
(dp150
g16
g11
sg33
g32
sg15
g11
sg29
g61
sg17
g11
sg68
S'0640'
p151
sg105
S'0200'
p152
sg62
g151
sg46
g30
sg48
g132
sg98
g152
sg100
g32
sg66
g151
sg107
g152
sg111
g11
ssg19
(dp153
g38
g61
sg40
g14
sg21
g32
sssg4
g5
sg16
(dp154
g6
(dp155
g44
g140
sg46
g30
sg8
g34
sg10
g34
sg15
g34
sg48
g30
ssg19
(dp156
g38
g61
sg40
g14
sg21
g32
sssg12
(dp157
g6
(dp158
g25
g151
sg27
g151
sg29
g30
sg31
g32
sg33
g30
sg15
g34
sg35
g151
ssg19
(dp159
g38
g61
sg40
g14
sg21
g32
sssg10
(dp160
g6
(dp161
g8
g11
sg29
g61
sg33
g14
sg62
g151
sg66
g151
sg46
g30
sg68
g151
sg48
g132
ssg19
(dp162
g38
g14
sg40
g14
sg21
g32
sssg31
g53
sg15
(dp163
g6
(dp164
g46
g22
sg82
g140
sg29
g56
sg33
g32
sg62
g140
sg76
g32
sg85
g140
sg80
g140
sg78
g140
ssg19
(dp165
g38
g61
sg40
g14
sg21
g34
sssg17
(dp166
g6
(dp167
g8
g34
sg62
g140
sg46
g30
sg123
g140
sg15
g34
sg48
g30
sg78
g140
sg80
g140
ssg19
(dp168
g38
g61
sg40
g14
sg21
g34
sssg18
g128
sg111
(dp169
g6
(dp170
g46
g132
sg29
g56
sg33
g56
sg62
g140
sg136
g140
sg76
g140
sg80
g140
sg78
g140
sg142
g140
ssg19
(dp171
g38
g61
sg40
g14
sg21
g34
ssssS'visd-staff'
p172
(dp173
g4
g5
sg31
g53
sg16
(dp174
g6
(dp175
g44
S'0664'
p176
sg46
S'0040'
p177
sg8
g34
sg10
g34
sg15
g34
sg48
S'0060'
p178
ssg19
(dp179
g38
S'0770'
p180
sg21
g32
sg40
S'0550'
p181
sssg8
(dp182
g6
(dp183
g29
S'0720'
p184
sg16
S'0775'
p185
sg46
S'0040'
p186
sg62
S'0660'
p187
sg48
S'0420'
p188
sg98
S'0220'
p189
sg100
S'0570'
p190
sg33
S'0570'
p191
sg15
S'0775'
p192
sg66
S'0660'
p193
sg105
S'0220'
p194
sg107
S'0220'
p195
sg17
S'0775'
p196
sg68
S'0660'
p197
sg111
S'0775'
p198
ssg19
(dp199
g38
S'0770'
p200
sg21
g32
sg40
S'0550'
p201
sssg10
(dp202
g6
(dp203
g29
g61
sg62
S'0660'
p204
sg46
g30
sg48
S'0460'
p205
sg8
S'0775'
p206
sg33
g14
sg66
S'0660'
p207
sg68
S'0660'
p208
ssg19
(dp209
g38
S'0570'
p210
sg21
g32
sg40
S'0550'
p211
sssg15
(dp212
g6
(dp213
g29
g56
sg62
S'0664'
p214
sg76
S'0570'
p215
sg78
S'0664'
p216
sg80
S'0664'
p217
sg82
S'0664'
p218
sg33
S'0570'
p219
sg85
S'0664'
p220
sg46
S'0444'
p221
ssg19
(dp222
g38
S'0770'
p223
sg21
g34
sg40
S'0550'
p224
sssg17
(dp225
g6
(dp226
g62
S'0664'
p227
sg46
S'0040'
p228
sg78
S'0664'
p229
sg80
S'0664'
p230
sg8
g34
sg15
g34
sg48
S'0040'
p231
sg123
S'0664'
p232
ssg19
(dp233
g38
S'0770'
p234
sg21
g34
sg40
S'0550'
p235
sssg18
g128
sg111
(dp236
g6
(dp237
g29
g56
sg136
S'0664'
p238
sg62
S'0664'
p239
sg46
S'0440'
p240
sg78
g140
sg80
g140
sg33
g56
sg76
S'0664'
p241
sg142
S'0664'
p242
ssg19
(dp243
g38
S'0770'
p244
sg21
g34
sg40
S'0550'
p245
sssg12
(dp246
g6
(dp247
g25
S'0660'
p248
sg27
S'0660'
p249
sg29
g30
sg31
g32
sg33
g30
sg15
g34
sg35
S'0660'
p250
ssg19
(dp251
g38
S'0770'
p252
sg21
g32
sg40
S'0550'
p253
ssss.