(dp1
S'admin'
p2
(dp3
S'index'
p4
(dp5
S'fields'
p6
(dp7
S'challenges'
p8
S'0711'
p9
sS'skillsets'
p10
S'0755'
p11
sS'users'
p12
g11
sS'groups'
p13
S'0500'
p14
sS'entries'
p15
g9
sS'tags'
p16
g9
sS'tools'
p17
g11
sS'events'
p18
g11
ssS'methods'
p19
(dp20
S'GET'
p21
S'0444'
p22
sssg12
(dp23
g6
(dp24
S'first_name'
p25
S'0660'
p26
sS'last_name'
p27
S'0660'
p28
sS'group'
p29
S'0020'
p30
sS'memberships'
p31
S'0550'
p32
sS'user'
p33
S'0000'
p34
sg15
S'0555'
p35
sS'email'
p36
S'0660'
p37
ssg19
(dp38
S'PUT'
p39
S'0770'
p40
sS'DELETE'
p41
S'0550'
p42
sg21
g32
sssg16
(dp43
g6
(dp44
S'word'
p45
S'0664'
p46
sS'created_at'
p47
S'0040'
p48
sg8
g35
sg10
g35
sg15
g35
sS'slug'
p49
S'0060'
p50
ssg19
(dp51
g39
S'0770'
p52
sg21
g32
sg41
S'0550'
p53
sssg31
(dp54
g6
(dp55
S'name'
p56
S'0600'
p57
sS'parent'
p58
g34
ssg19
(dp59
g39
g34
sg41
g34
sg21
g14
sssg10
(dp60
g6
(dp61
g29
S'0700'
p62
sS'title'
p63
S'0660'
p64
sg47
g34
sg49
S'0460'
p65
sg8
S'0775'
p66
sg33
g14
sS'short_description'
p67
S'0660'
p68
sS'long_description'
p69
S'0660'
p70
ssg19
(dp71
g39
S'0570'
p72
sg21
g32
sg41
S'0550'
p73
sssg15
(dp74
g6
(dp75
g29
g57
sg63
S'0664'
p76
sS'challenge'
p77
S'0570'
p78
sS'url_link'
p79
S'0664'
p80
sS'url_title'
p81
S'0664'
p82
sS'caption'
p83
S'0664'
p84
sg33
S'0570'
p85
sS'image'
p86
S'0664'
p87
sg47
S'0444'
p88
ssg19
(dp89
g39
S'0770'
p90
sg21
g35
sg41
S'0550'
p91
sssg8
(dp92
g6
(dp93
g29
S'0720'
p94
sg16
S'0775'
p95
sg47
S'0040'
p96
sg63
S'0660'
p97
sg49
S'0420'
p98
sS'skillset_id'
p99
S'0220'
p100
sS'skillset'
p101
S'0570'
p102
sg33
S'0570'
p103
sg15
S'0775'
p104
sg67
S'0660'
p105
sS'user_id'
p106
S'0220'
p107
sS'group_id'
p108
S'0220'
p109
sg17
S'0775'
p110
sg69
S'0660'
p111
sS'resources'
p112
S'0775'
p113
ssg19
(dp114
g39
S'0770'
p115
sg21
g32
sg41
S'0550'
p116
sssg17
(dp117
g6
(dp118
g63
S'0664'
p119
sg47
S'0040'
p120
sg79
S'0664'
p121
sg81
S'0664'
p122
sg8
g35
sg15
g35
sg49
S'0040'
p123
sS'icon'
p124
S'0664'
p125
ssg19
(dp126
g39
S'0770'
p127
sg21
g35
sg41
S'0550'
p128
sssg18
(dp129
g6
(dp130
g33
S'0440'
p131
sg16
g35
sS'modified'
p132
S'0400'
p133
sS'created'
p134
g133
sssg112
(dp135
g6
(dp136
g29
g57
sS'thumb'
p137
S'0664'
p138
sg63
S'0664'
p139
sg47
S'0440'
p140
sg79
S'0644'
p141
sg81
g141
sg33
g57
sg77
S'0664'
p142
sS'description'
p143
S'0664'
p144
ssg19
(dp145
g39
S'0770'
p146
sg21
g35
sg41
S'0550'
p147
ssssS'BASE'
p148
(dp149
g8
(dp150
g6
(dp151
g16
g11
sg33
g32
sg15
g11
sg29
g62
sg17
g11
sg69
S'0640'
p152
sg106
S'0200'
p153
sg63
g152
sg47
g34
sg49
g133
sg99
g153
sg101
g32
sg67
g152
sg108
g153
sg112
g11
ssg19
(dp154
g39
g62
sg41
g14
sg21
g32
sssg4
g5
sg16
(dp155
g6
(dp156
g45
g141
sg47
g34
sg8
g35
sg10
g35
sg15
g35
sg49
g34
ssg19
(dp157
g39
g62
sg41
g14
sg21
g32
sssg12
(dp158
g6
(dp159
g25
g152
sg27
g152
sg29
g34
sg31
g32
sg33
g34
sg15
g35
sg36
g152
ssg19
(dp160
g39
g62
sg41
g14
sg21
g32
sssg10
(dp161
g6
(dp162
g8
g11
sg29
g62
sg33
g14
sg63
g152
sg67
g152
sg47
g34
sg69
g152
sg49
g133
ssg19
(dp163
g39
g14
sg41
g14
sg21
g32
sssg31
g54
sg15
(dp164
g6
(dp165
g47
g22
sg83
g141
sg29
g57
sg33
g32
sg63
g141
sg77
g32
sg86
g141
sg81
g141
sg79
g141
ssg19
(dp166
g39
g62
sg41
g14
sg21
g35
sssg17
(dp167
g6
(dp168
g8
g35
sg63
g141
sg47
g34
sg124
g141
sg15
g35
sg49
g34
sg79
g141
sg81
g141
ssg19
(dp169
g39
g62
sg41
g14
sg21
g35
sssg18
g129
sg112
(dp170
g6
(dp171
g47
g133
sg29
g57
sg33
g57
sg63
g141
sg137
g141
sg77
g141
sg81
g141
sg79
g141
sg143
g141
ssg19
(dp172
g39
g62
sg41
g14
sg21
g35
ssssS'visd-staff'
p173
(dp174
g4
g5
sg31
g54
sg16
(dp175
g6
(dp176
g45
S'0664'
p177
sg47
S'0040'
p178
sg8
g35
sg10
g35
sg15
g35
sg49
S'0060'
p179
ssg19
(dp180
g39
S'0770'
p181
sg21
g32
sg41
S'0550'
p182
sssg8
(dp183
g6
(dp184
g29
S'0720'
p185
sg16
S'0775'
p186
sg47
S'0040'
p187
sg63
S'0660'
p188
sg49
S'0420'
p189
sg99
S'0220'
p190
sg101
S'0570'
p191
sg33
S'0570'
p192
sg15
S'0775'
p193
sg67
S'0660'
p194
sg106
S'0220'
p195
sg108
S'0220'
p196
sg17
S'0775'
p197
sg69
S'0660'
p198
sg112
S'0775'
p199
ssg19
(dp200
g39
S'0770'
p201
sg21
g32
sg41
S'0550'
p202
sssg10
(dp203
g6
(dp204
g29
g62
sg63
S'0660'
p205
sg47
g34
sg49
S'0460'
p206
sg8
S'0775'
p207
sg33
g14
sg67
S'0660'
p208
sg69
S'0660'
p209
ssg19
(dp210
g39
S'0570'
p211
sg21
g32
sg41
S'0550'
p212
sssg15
(dp213
g6
(dp214
g29
g57
sg63
S'0664'
p215
sg77
S'0570'
p216
sg79
S'0664'
p217
sg81
S'0664'
p218
sg83
S'0664'
p219
sg33
S'0570'
p220
sg86
S'0664'
p221
sg47
S'0444'
p222
ssg19
(dp223
g39
S'0770'
p224
sg21
g35
sg41
S'0550'
p225
sssg17
(dp226
g6
(dp227
g63
S'0664'
p228
sg47
S'0040'
p229
sg79
S'0664'
p230
sg81
S'0664'
p231
sg8
g35
sg15
g35
sg49
S'0040'
p232
sg124
S'0664'
p233
ssg19
(dp234
g39
S'0770'
p235
sg21
g35
sg41
S'0550'
p236
sssg18
g129
sg112
(dp237
g6
(dp238
g29
g57
sg137
S'0664'
p239
sg63
S'0664'
p240
sg47
S'0440'
p241
sg79
g141
sg81
g141
sg33
g57
sg77
S'0664'
p242
sg143
S'0664'
p243
ssg19
(dp244
g39
S'0770'
p245
sg21
g35
sg41
S'0550'
p246
sssg12
(dp247
g6
(dp248
g25
S'0660'
p249
sg27
S'0660'
p250
sg29
g34
sg31
g32
sg33
g34
sg15
g35
sg36
S'0660'
p251
ssg19
(dp252
g39
S'0770'
p253
sg21
g32
sg41
S'0550'
p254
ssss.