(dp1
S'admin'
p2
(dp3
S'index'
p4
(dp5
S'methods'
p6
(dp7
S'GET'
p8
S'-444'
p9
ssS'tags'
p10
(dp11
S'fields'
p12
(dp13
S'challenges'
p14
S'm555'
p15
sS'skillsets'
p16
g15
sS'group'
p17
S'o000'
p18
sS'user'
p19
g18
sS'entries'
p20
g15
sS'word'
p21
S'-644'
p22
sS'created_at'
p23
S'-000'
p24
sS'slug'
p25
g24
ssg6
(dp26
S'PUT'
p27
S'-700'
p28
sS'DELETE'
p29
S'-500'
p30
sg8
S'-550'
p31
sssg14
(dp32
g12
(dp33
g10
S'm755'
p34
sg19
S'o550'
p35
sg20
g34
sg17
S'o700'
p36
sS'tools'
p37
g34
sS'long_description'
p38
S'-640'
p39
sS'user_id'
p40
S'-200'
p41
sS'title'
p42
g39
sg23
g24
sg25
S'-400'
p43
sS'skillset_id'
p44
g41
sS'skillset'
p45
S'p550'
p46
sS'short_description'
p47
g39
sS'group_id'
p48
g41
sS'resources'
p49
g34
ssg6
(dp50
g27
g28
sg29
g30
sg8
g31
sssg16
(dp51
g12
(dp52
g14
g34
sg17
g36
sg19
S'o500'
p53
sg42
g39
sg47
g39
sg23
g24
sg38
g39
sg25
g43
ssg6
(dp54
g27
g30
sg29
g30
sg8
g31
sssg20
(dp55
g12
(dp56
g23
g9
sS'caption'
p57
g22
sg17
S'o600'
p58
sg19
g35
sg42
g22
sS'challenge'
p59
g46
sS'image'
p60
g22
sS'url_title'
p61
g22
sS'url_link'
p62
g22
ssg6
(dp63
g27
g28
sg29
g30
sg8
S'-555'
p64
sssg37
(dp65
g12
(dp66
g14
g15
sg17
g18
sg19
g18
sg42
g22
sg23
g24
sS'icon'
p67
g22
sg20
g15
sg25
g24
sg62
g22
sg61
g22
ssg6
(dp68
g27
g28
sg29
g30
sg8
g64
sssS'users'
p69
(dp70
g12
(dp71
S'first_name'
p72
g39
sS'last_name'
p73
g39
sg17
g18
sS'memberships'
p74
S'm550'
p75
sg19
g18
sg20
g15
sS'email'
p76
g39
ssg6
(dp77
g27
g28
sg29
g30
sg8
g31
sssg12
(dp78
g14
S'm711'
p79
sg16
g34
sg69
g34
sS'groups'
p80
S'm500'
p81
sg20
g79
sg10
g79
sg37
g34
sS'events'
p82
g34
ssg74
(dp83
g12
(dp84
S'name'
p85
S'-600'
p86
sS'parent'
p87
g18
ssg6
(dp88
g27
g24
sg29
g24
sg8
g30
sssg82
(dp89
g12
(dp90
g19
S'-440'
p91
sg10
g64
sS'modified'
p92
g43
sS'created'
p93
g43
sssg49
(dp94
g12
(dp95
g23
g43
sg17
g58
sg19
g58
sg42
g22
sS'thumb'
p96
g22
sg59
S'p644'
p97
sg61
g22
sg62
g22
sS'description'
p98
g22
ssg6
(dp99
g27
g28
sg29
g30
sg8
g64
sssssS'BASE'
p100
(dp101
g4
g5
ssS'visd-staff'
p102
(dp103
g4
g5
ss.