(dp1
S'admin'
p2
(dp3
S'owner'
p4
(dp5
S'index'
p6
(dp7
S'memberships'
p8
(dp9
S'fields'
p10
(dp11
S'name'
p12
I6
sS'parent'
p13
I0
ssS'methods'
p14
(dp15
S'PUT'
p16
I0
sS'GET'
p17
I5
sS'DELETE'
p18
I0
sssg14
(dp19
g17
I4
ssS'tags'
p20
(dp21
g10
(dp22
S'group'
p23
I0
sS'created_at'
p24
I0
sS'challenges'
p25
I5
sS'skillsets'
p26
I5
sS'user'
p27
I0
sS'entries'
p28
I5
sS'word'
p29
I6
sS'slug'
p30
I0
ssg14
(dp31
g16
I7
sg17
I5
sg18
I5
sssg10
(dp32
S'users'
p33
I7
sg20
I7
sg25
I7
sg26
I7
sS'groups'
p34
I5
sg28
I7
sS'tools'
p35
I7
sS'events'
p36
I7
ssg25
(dp37
g10
(dp38
g23
I7
sg20
I7
sg24
I0
sS'title'
p39
I6
sg30
I4
sS'skillset_id'
p40
I2
sS'skillset'
p41
I5
sg27
I5
sg28
I7
sS'short_description'
p42
I6
sS'user_id'
p43
I2
sS'group_id'
p44
I2
sg35
I7
sS'long_description'
p45
I6
sS'resources'
p46
I7
ssg14
(dp47
g16
I7
sg17
I5
sg18
I5
sssg26
(dp48
g10
(dp49
g23
I7
sg39
I6
sg24
I0
sg30
I4
sg25
I7
sg27
I5
sg42
I6
sg45
I6
ssg14
(dp50
g16
I5
sg17
I5
sg18
I5
sssg28
(dp51
g10
(dp52
g23
I6
sg39
I6
sg24
I4
sS'url_link'
p53
I6
sS'url_title'
p54
I6
sS'caption'
p55
I6
sg27
I5
sS'image'
p56
I6
sS'challenge'
p57
I5
ssg14
(dp58
g16
I7
sg17
I5
sg18
I5
sssg35
(dp59
g10
(dp60
g23
I0
sg39
I6
sg24
I0
sg53
I6
sg54
I6
sg25
I5
sg27
I0
sg28
I5
sg30
I0
sS'icon'
p61
I6
ssg14
(dp62
g16
I7
sg17
I5
sg18
I5
sssg36
(dp63
g10
(dp64
S'created'
p65
I4
sg27
I4
sS'modified'
p66
I4
sg20
I5
sssg46
(dp67
g10
(dp68
g23
I6
sS'thumb'
p69
I6
sg39
I6
sg24
I4
sg53
I6
sg54
I6
sg27
I6
sg57
I6
sS'description'
p70
I6
ssg14
(dp71
g16
I7
sg17
I5
sg18
I5
sssg33
(dp72
g10
(dp73
g8
I5
sS'first_name'
p74
I6
sS'last_name'
p75
I6
sg23
I0
sg27
I0
sg28
I5
sS'email'
p76
I6
ssg14
(dp77
g16
I7
sg17
I5
sg18
I5
sssssS'world'
p78
(dp79
g6
(dp80
g8
(dp81
g10
(dp82
g12
I0
sg13
I0
ssg14
(dp83
g16
I0
sg17
I0
sg18
I0
sssg14
(dp84
g17
I4
ssg20
(dp85
g10
(dp86
g23
I0
sg24
I0
sg25
I5
sg26
I5
sg27
I0
sg28
I5
sg29
I4
sg30
I0
ssg14
(dp87
g16
I0
sg17
I0
sg18
I0
sssg10
(dp88
g33
I5
sg20
I1
sg25
I1
sg26
I5
sg34
I0
sg28
I1
sg35
I5
sg36
I5
ssg25
(dp89
g10
(dp90
g23
I0
sg20
I5
sg24
I0
sg39
I0
sg30
I0
sg40
I0
sg41
I0
sg27
I0
sg28
I5
sg42
I0
sg43
I0
sg44
I0
sg35
I5
sg45
I0
sg46
I5
ssg14
(dp91
g16
I0
sg17
I0
sg18
I0
sssg26
(dp92
g10
(dp93
g23
I0
sg39
I0
sg24
I0
sg30
I0
sg25
I5
sg27
I0
sg42
I0
sg45
I0
ssg14
(dp94
g16
I0
sg17
I0
sg18
I0
sssg28
(dp95
g10
(dp96
g23
I0
sg39
I4
sg24
I4
sg53
I4
sg54
I4
sg55
I4
sg27
I0
sg56
I4
sg57
I0
ssg14
(dp97
g16
I0
sg17
I5
sg18
I0
sssg35
(dp98
g10
(dp99
g23
I0
sg39
I4
sg24
I0
sg53
I4
sg54
I4
sg25
I5
sg27
I0
sg28
I5
sg30
I0
sg61
I4
ssg14
(dp100
g16
I0
sg17
I5
sg18
I0
sssg36
(dp101
g10
(dp102
g65
I0
sg27
I0
sg66
I0
sg20
I5
sssg46
(dp103
g10
(dp104
g23
I0
sg69
I4
sg39
I4
sg24
I0
sg53
I4
sg54
I4
sg27
I0
sg57
I4
sg70
I4
ssg14
(dp105
g16
I0
sg17
I5
sg18
I0
sssg33
(dp106
g10
(dp107
g8
I0
sg74
I0
sg75
I0
sg23
I0
sg27
I0
sg28
I5
sg76
I0
ssg14
(dp108
g16
I0
sg17
I0
sg18
I0
sssssS'group'
p109
(dp110
g6
(dp111
g8
(dp112
g10
(dp113
g12
I0
sg13
I0
ssg14
(dp114
g16
I0
sg17
I0
sg18
I0
sssg14
(dp115
g17
I4
ssg20
(dp116
g10
(dp117
g23
I0
sg24
I0
sg25
I5
sg26
I5
sg27
I0
sg28
I5
sg29
I4
sg30
I0
ssg14
(dp118
g16
I0
sg17
I5
sg18
I0
sssg10
(dp119
g33
I5
sg20
I1
sg25
I1
sg26
I5
sg34
I0
sg28
I1
sg35
I5
sg36
I5
ssg25
(dp120
g10
(dp121
g23
I0
sg20
I5
sg24
I0
sg39
I4
sg30
I0
sg40
I0
sg41
I5
sg27
I5
sg28
I5
sg42
I4
sg43
I0
sg44
I0
sg35
I5
sg45
I4
sg46
I5
ssg14
(dp122
g16
I0
sg17
I5
sg18
I0
sssg26
(dp123
g10
(dp124
g23
I0
sg39
I4
sg24
I0
sg30
I0
sg25
I5
sg27
I0
sg42
I4
sg45
I4
ssg14
(dp125
g16
I0
sg17
I5
sg18
I0
sssg28
(dp126
g10
(dp127
g23
I0
sg39
I4
sg24
I4
sg53
I4
sg54
I4
sg55
I4
sg27
I5
sg56
I4
sg57
I5
ssg14
(dp128
g16
I0
sg17
I5
sg18
I0
sssg35
(dp129
g10
(dp130
g23
I0
sg39
I4
sg24
I0
sg53
I4
sg54
I4
sg25
I5
sg27
I0
sg28
I5
sg30
I0
sg61
I4
ssg14
(dp131
g16
I0
sg17
I5
sg18
I0
sssg36
(dp132
g10
(dp133
g65
I0
sg27
I4
sg66
I0
sg20
I5
sssg46
(dp134
g10
(dp135
g23
I0
sg69
I4
sg39
I4
sg24
I0
sg53
I4
sg54
I4
sg27
I0
sg57
I4
sg70
I4
ssg14
(dp136
g16
I0
sg17
I5
sg18
I0
sssg33
(dp137
g10
(dp138
g8
I5
sg74
I4
sg75
I4
sg23
I0
sg27
I0
sg28
I5
sg76
I4
ssg14
(dp139
g16
I0
sg17
I5
sg18
I0
ssssssS'BASE'
p140
(dp141
g4
(dp142
g6
(dp143
g8
(dp144
g10
(dp145
g12
I6
sg13
I0
ssg14
(dp146
g16
I0
sg17
I5
sg18
I0
sssg14
(dp147
g17
I4
ssg20
(dp148
g10
(dp149
g23
I0
sg24
I0
sg25
I5
sg26
I5
sg27
I0
sg28
I5
sg29
I6
sg30
I0
ssg14
(dp150
g16
I7
sg17
I5
sg18
I5
sssg10
(dp151
g33
I7
sg20
I7
sg25
I7
sg26
I7
sg34
I5
sg28
I7
sg35
I7
sg36
I7
ssg25
(dp152
g10
(dp153
g23
I7
sg20
I7
sg24
I0
sg39
I6
sg30
I4
sg40
I2
sg41
I5
sg27
I5
sg28
I7
sg42
I6
sg43
I2
sg44
I2
sg35
I7
sg45
I6
sg46
I7
ssg14
(dp154
g16
I7
sg17
I5
sg18
I5
sssg26
(dp155
g10
(dp156
g23
I7
sg39
I6
sg24
I0
sg30
I4
sg25
I7
sg27
I5
sg42
I6
sg45
I6
ssg14
(dp157
g16
I5
sg17
I5
sg18
I5
sssg28
(dp158
g10
(dp159
g23
I6
sg39
I6
sg24
I4
sg53
I6
sg54
I6
sg55
I6
sg27
I5
sg56
I6
sg57
I5
ssg14
(dp160
g16
I7
sg17
I5
sg18
I5
sssg35
(dp161
g10
(dp162
g23
I0
sg39
I6
sg24
I0
sg53
I6
sg54
I6
sg25
I5
sg27
I0
sg28
I5
sg30
I0
sg61
I6
ssg14
(dp163
g16
I7
sg17
I5
sg18
I5
sssg36
(dp164
g10
(dp165
g65
I4
sg27
I4
sg66
I4
sg20
I5
sssg46
(dp166
g10
(dp167
g23
I6
sg69
I6
sg39
I6
sg24
I4
sg53
I6
sg54
I6
sg27
I6
sg57
I6
sg70
I6
ssg14
(dp168
g16
I7
sg17
I5
sg18
I5
sssg33
(dp169
g10
(dp170
g8
I5
sg74
I6
sg75
I6
sg23
I0
sg27
I0
sg28
I5
sg76
I6
ssg14
(dp171
g16
I7
sg17
I5
sg18
I5
sssssg78
(dp172
g6
(dp173
g8
(dp174
g10
(dp175
g12
I0
sg13
I0
ssg14
(dp176
g16
I0
sg17
I0
sg18
I0
sssg14
(dp177
g17
I4
ssg20
(dp178
g10
(dp179
g23
I0
sg24
I0
sg25
I5
sg26
I5
sg27
I0
sg28
I5
sg29
I4
sg30
I0
ssg14
(dp180
g16
I0
sg17
I0
sg18
I0
sssg10
(dp181
g33
I5
sg20
I1
sg25
I1
sg26
I5
sg34
I0
sg28
I1
sg35
I5
sg36
I5
ssg25
(dp182
g10
(dp183
g23
I0
sg20
I5
sg24
I0
sg39
I0
sg30
I0
sg40
I0
sg41
I0
sg27
I0
sg28
I5
sg42
I0
sg43
I0
sg44
I0
sg35
I5
sg45
I0
sg46
I5
ssg14
(dp184
g16
I0
sg17
I0
sg18
I0
sssg26
(dp185
g10
(dp186
g23
I0
sg39
I0
sg24
I0
sg30
I0
sg25
I5
sg27
I0
sg42
I0
sg45
I0
ssg14
(dp187
g16
I0
sg17
I0
sg18
I0
sssg28
(dp188
g10
(dp189
g23
I0
sg39
I4
sg24
I4
sg53
I4
sg54
I4
sg55
I4
sg27
I0
sg56
I4
sg57
I0
ssg14
(dp190
g16
I0
sg17
I5
sg18
I0
sssg35
(dp191
g10
(dp192
g23
I0
sg39
I4
sg24
I0
sg53
I4
sg54
I4
sg25
I5
sg27
I0
sg28
I5
sg30
I0
sg61
I4
ssg14
(dp193
g16
I0
sg17
I5
sg18
I0
sssg36
(dp194
g10
(dp195
g65
I0
sg27
I0
sg66
I0
sg20
I5
sssg46
(dp196
g10
(dp197
g23
I0
sg69
I4
sg39
I4
sg24
I0
sg53
I4
sg54
I4
sg27
I0
sg57
I4
sg70
I4
ssg14
(dp198
g16
I0
sg17
I5
sg18
I0
sssg33
(dp199
g10
(dp200
g8
I0
sg74
I0
sg75
I0
sg23
I0
sg27
I0
sg28
I5
sg76
I0
ssg14
(dp201
g16
I0
sg17
I0
sg18
I0
sssssg109
(dp202
g6
(dp203
g8
(dp204
g10
(dp205
g12
I0
sg13
I0
ssg14
(dp206
g16
I0
sg17
I0
sg18
I0
sssg14
(dp207
g17
I4
ssg20
(dp208
g10
(dp209
g23
I0
sg24
I0
sg25
I5
sg26
I5
sg27
I0
sg28
I5
sg29
I4
sg30
I0
ssg14
(dp210
g16
I0
sg17
I5
sg18
I0
sssg10
(dp211
g33
I5
sg20
I1
sg25
I1
sg26
I5
sg34
I0
sg28
I1
sg35
I5
sg36
I5
ssg25
(dp212
g10
(dp213
g23
I0
sg20
I5
sg24
I0
sg39
I4
sg30
I0
sg40
I0
sg41
I5
sg27
I5
sg28
I5
sg42
I4
sg43
I0
sg44
I0
sg35
I5
sg45
I4
sg46
I5
ssg14
(dp214
g16
I0
sg17
I5
sg18
I0
sssg26
(dp215
g10
(dp216
g23
I0
sg39
I4
sg24
I0
sg30
I0
sg25
I5
sg27
I0
sg42
I4
sg45
I4
ssg14
(dp217
g16
I0
sg17
I5
sg18
I0
sssg28
(dp218
g10
(dp219
g23
I0
sg39
I4
sg24
I4
sg53
I4
sg54
I4
sg55
I4
sg27
I5
sg56
I4
sg57
I5
ssg14
(dp220
g16
I0
sg17
I5
sg18
I0
sssg35
(dp221
g10
(dp222
g23
I0
sg39
I4
sg24
I0
sg53
I4
sg54
I4
sg25
I5
sg27
I0
sg28
I5
sg30
I0
sg61
I4
ssg14
(dp223
g16
I0
sg17
I5
sg18
I0
sssg36
(dp224
g10
(dp225
g65
I0
sg27
I4
sg66
I0
sg20
I5
sssg46
(dp226
g10
(dp227
g23
I0
sg69
I4
sg39
I4
sg24
I0
sg53
I4
sg54
I4
sg27
I0
sg57
I4
sg70
I4
ssg14
(dp228
g16
I0
sg17
I5
sg18
I0
sssg33
(dp229
g10
(dp230
g8
I5
sg74
I4
sg75
I4
sg23
I0
sg27
I0
sg28
I5
sg76
I4
ssg14
(dp231
g16
I0
sg17
I5
sg18
I0
ssssssS'visd-staff'
p232
(dp233
g4
(dp234
g6
(dp235
g8
(dp236
g10
(dp237
g12
I6
sg13
I0
ssg14
(dp238
g16
I0
sg17
I5
sg18
I0
sssg14
(dp239
g17
I4
ssg20
(dp240
g10
(dp241
g23
I0
sg24
I0
sg25
I5
sg26
I5
sg27
I0
sg28
I5
sg29
I6
sg30
I0
ssg14
(dp242
g16
I7
sg17
I5
sg18
I5
sssg10
(dp243
g33
I7
sg20
I7
sg25
I7
sg26
I7
sg34
I5
sg28
I7
sg35
I7
sg36
I7
ssg25
(dp244
g10
(dp245
g23
I7
sg20
I7
sg24
I0
sg39
I6
sg30
I4
sg40
I2
sg41
I5
sg27
I5
sg28
I7
sg42
I6
sg43
I2
sg44
I2
sg35
I7
sg45
I6
sg46
I7
ssg14
(dp246
g16
I7
sg17
I5
sg18
I5
sssg26
(dp247
g10
(dp248
g23
I7
sg39
I6
sg24
I0
sg30
I4
sg25
I7
sg27
I5
sg42
I6
sg45
I6
ssg14
(dp249
g16
I5
sg17
I5
sg18
I5
sssg28
(dp250
g10
(dp251
g23
I6
sg39
I6
sg24
I4
sg53
I6
sg54
I6
sg55
I6
sg27
I5
sg56
I6
sg57
I5
ssg14
(dp252
g16
I7
sg17
I5
sg18
I5
sssg35
(dp253
g10
(dp254
g23
I0
sg39
I6
sg24
I0
sg53
I6
sg54
I6
sg25
I5
sg27
I0
sg28
I5
sg30
I0
sg61
I6
ssg14
(dp255
g16
I7
sg17
I5
sg18
I5
sssg36
(dp256
g10
(dp257
g65
I4
sg27
I4
sg66
I4
sg20
I5
sssg46
(dp258
g10
(dp259
g23
I6
sg69
I6
sg39
I6
sg24
I4
sg53
I6
sg54
I6
sg27
I6
sg57
I6
sg70
I6
ssg14
(dp260
g16
I7
sg17
I5
sg18
I5
sssg33
(dp261
g10
(dp262
g8
I5
sg74
I6
sg75
I6
sg23
I0
sg27
I0
sg28
I5
sg76
I6
ssg14
(dp263
g16
I7
sg17
I5
sg18
I5
sssssg78
(dp264
g6
(dp265
g8
(dp266
g10
(dp267
g12
I0
sg13
I0
ssg14
(dp268
g16
I0
sg17
I0
sg18
I0
sssg14
(dp269
g17
I4
ssg20
(dp270
g10
(dp271
g23
I0
sg24
I0
sg25
I5
sg26
I5
sg27
I0
sg28
I5
sg29
I4
sg30
I0
ssg14
(dp272
g16
I0
sg17
I0
sg18
I0
sssg10
(dp273
g33
I5
sg20
I1
sg25
I1
sg26
I5
sg34
I0
sg28
I1
sg35
I5
sg36
I5
ssg25
(dp274
g10
(dp275
g23
I0
sg20
I5
sg24
I0
sg39
I0
sg30
I0
sg40
I0
sg41
I0
sg27
I0
sg28
I5
sg42
I0
sg43
I0
sg44
I0
sg35
I5
sg45
I0
sg46
I5
ssg14
(dp276
g16
I0
sg17
I0
sg18
I0
sssg26
(dp277
g10
(dp278
g23
I0
sg39
I0
sg24
I0
sg30
I0
sg25
I5
sg27
I0
sg42
I0
sg45
I0
ssg14
(dp279
g16
I0
sg17
I0
sg18
I0
sssg28
(dp280
g10
(dp281
g23
I0
sg39
I4
sg24
I4
sg53
I4
sg54
I4
sg55
I4
sg27
I0
sg56
I4
sg57
I0
ssg14
(dp282
g16
I0
sg17
I5
sg18
I0
sssg35
(dp283
g10
(dp284
g23
I0
sg39
I4
sg24
I0
sg53
I4
sg54
I4
sg25
I5
sg27
I0
sg28
I5
sg30
I0
sg61
I4
ssg14
(dp285
g16
I0
sg17
I5
sg18
I0
sssg36
(dp286
g10
(dp287
g65
I0
sg27
I0
sg66
I0
sg20
I5
sssg46
(dp288
g10
(dp289
g23
I0
sg69
I4
sg39
I4
sg24
I0
sg53
I4
sg54
I4
sg27
I0
sg57
I4
sg70
I4
ssg14
(dp290
g16
I0
sg17
I5
sg18
I0
sssg33
(dp291
g10
(dp292
g8
I0
sg74
I0
sg75
I0
sg23
I0
sg27
I0
sg28
I5
sg76
I0
ssg14
(dp293
g16
I0
sg17
I0
sg18
I0
sssssg109
(dp294
g6
(dp295
g8
(dp296
g10
(dp297
g12
I0
sg13
I0
ssg14
(dp298
g16
I0
sg17
I0
sg18
I0
sssg14
(dp299
g17
I4
ssg20
(dp300
g10
(dp301
g23
I0
sg24
I0
sg25
I5
sg26
I5
sg27
I0
sg28
I5
sg29
I4
sg30
I0
ssg14
(dp302
g16
I0
sg17
I5
sg18
I0
sssg10
(dp303
g33
I5
sg20
I1
sg25
I1
sg26
I5
sg34
I0
sg28
I1
sg35
I5
sg36
I5
ssg25
(dp304
g10
(dp305
g23
I0
sg20
I5
sg24
I0
sg39
I4
sg30
I0
sg40
I0
sg41
I5
sg27
I5
sg28
I5
sg42
I4
sg43
I0
sg44
I0
sg35
I5
sg45
I4
sg46
I5
ssg14
(dp306
g16
I0
sg17
I5
sg18
I0
sssg26
(dp307
g10
(dp308
g23
I0
sg39
I4
sg24
I0
sg30
I0
sg25
I5
sg27
I0
sg42
I4
sg45
I4
ssg14
(dp309
g16
I0
sg17
I5
sg18
I0
sssg28
(dp310
g10
(dp311
g23
I0
sg39
I4
sg24
I4
sg53
I4
sg54
I4
sg55
I4
sg27
I5
sg56
I4
sg57
I5
ssg14
(dp312
g16
I0
sg17
I5
sg18
I0
sssg35
(dp313
g10
(dp314
g23
I0
sg39
I4
sg24
I0
sg53
I4
sg54
I4
sg25
I5
sg27
I0
sg28
I5
sg30
I0
sg61
I4
ssg14
(dp315
g16
I0
sg17
I5
sg18
I0
sssg36
(dp316
g10
(dp317
g65
I0
sg27
I4
sg66
I0
sg20
I5
sssg46
(dp318
g10
(dp319
g23
I0
sg69
I4
sg39
I4
sg24
I0
sg53
I4
sg54
I4
sg27
I0
sg57
I4
sg70
I4
ssg14
(dp320
g16
I0
sg17
I5
sg18
I0
sssg33
(dp321
g10
(dp322
g8
I5
sg74
I4
sg75
I4
sg23
I0
sg27
I0
sg28
I5
sg76
I4
ssg14
(dp323
g16
I0
sg17
I5
sg18
I0
ssssss.