(dp1
S'admin'
p2
(dp3
S'owner'
p4
(dp5
S'index'
p6
(dp7
S'fields'
p8
(dp9
S'users'
p10
I7
sS'tags'
p11
I7
sS'challenges'
p12
I7
sS'skillsets'
p13
I7
sS'groups'
p14
I5
sS'entries'
p15
I7
sS'tools'
p16
I7
sS'events'
p17
I7
ssS'methods'
p18
(dp19
S'GET'
p20
I4
sssg10
(dp21
g8
(dp22
S'memberships'
p23
I5
sS'first_name'
p24
I6
sS'last_name'
p25
I6
sS'group'
p26
I0
sS'user'
p27
I0
sg15
I5
sS'email'
p28
I6
ssg18
(dp29
S'PUT'
p30
I7
sS'DELETE'
p31
I5
sg20
I5
sssg11
(dp32
g8
(dp33
g12
I5
sg13
I5
sS'word'
p34
I6
sg15
I5
sS'created_at'
p35
I0
sS'slug'
p36
I0
ssg18
(dp37
g30
I7
sg31
I5
sg20
I5
sssg23
(dp38
g8
(dp39
S'name'
p40
I6
sS'parent'
p41
I0
ssg18
(dp42
g30
I0
sg20
I5
sg31
I0
sssg13
(dp43
g8
(dp44
g26
I7
sS'title'
p45
I6
sg35
I0
sS'long_description'
p46
I6
sg12
I7
sg27
I5
sS'short_description'
p47
I6
sg36
I4
ssg18
(dp48
g30
I5
sg31
I5
sg20
I5
sssg15
(dp49
g8
(dp50
g35
I4
sg26
I6
sg45
I6
sS'challenge'
p51
I5
sS'url_link'
p52
I6
sS'caption'
p53
I6
sg27
I5
sS'image'
p54
I6
sS'url_title'
p55
I6
ssg18
(dp56
g30
I7
sg31
I5
sg20
I5
sssg12
(dp57
g8
(dp58
g26
I7
sg11
I7
sg35
I0
sg45
I6
sg46
I6
sS'skillset_id'
p59
I2
sS'skillset'
p60
I5
sg27
I5
sg15
I7
sg47
I6
sS'user_id'
p61
I2
sS'group_id'
p62
I2
sg16
I7
sg36
I4
sS'resources'
p63
I7
ssg18
(dp64
g30
I7
sg31
I5
sg20
I5
sssg16
(dp65
g8
(dp66
g45
I6
sg35
I0
sg52
I6
sg36
I0
sg12
I5
sg15
I5
sg55
I6
sS'icon'
p67
I6
ssg18
(dp68
g30
I7
sg31
I5
sg20
I5
sssg17
(dp69
g8
(dp70
S'created'
p71
I4
sg27
I4
sS'modified'
p72
I4
sg11
I5
sssg63
(dp73
g8
(dp74
g26
I6
sS'thumb'
p75
I6
sg45
I6
sg35
I4
sg52
I6
sg27
I6
sg51
I6
sg55
I6
sS'description'
p76
I6
ssg18
(dp77
g30
I7
sg31
I5
sg20
I5
ssssS'world'
p78
(dp79
g6
(dp80
g8
(dp81
g10
I5
sg11
I1
sg12
I1
sg13
I5
sg14
I0
sg15
I1
sg16
I5
sg17
I5
ssg18
(dp82
g20
I4
sssg10
(dp83
g8
(dp84
g23
I0
sg24
I0
sg25
I0
sg26
I0
sg27
I0
sg15
I5
sg28
I0
ssg18
(dp85
g30
I0
sg31
I0
sg20
I0
sssg11
(dp86
g8
(dp87
g12
I5
sg13
I5
sg34
I4
sg15
I5
sg35
I0
sg36
I0
ssg18
(dp88
g30
I0
sg31
I0
sg20
I5
sssg23
(dp89
g8
(dp90
g40
I0
sg41
I0
ssg18
(dp91
g30
I0
sg20
I0
sg31
I0
sssg13
(dp92
g8
(dp93
g26
I0
sg45
I0
sg35
I0
sg46
I0
sg12
I5
sg27
I0
sg47
I0
sg36
I0
ssg18
(dp94
g30
I0
sg31
I0
sg20
I5
sssg15
(dp95
g8
(dp96
g35
I4
sg26
I0
sg45
I4
sg51
I0
sg52
I4
sg53
I4
sg27
I0
sg54
I4
sg55
I4
ssg18
(dp97
g30
I0
sg31
I0
sg20
I5
sssg12
(dp98
g8
(dp99
g26
I0
sg11
I5
sg35
I0
sg45
I0
sg46
I0
sg59
I0
sg60
I0
sg27
I0
sg15
I5
sg47
I0
sg61
I0
sg62
I0
sg16
I5
sg36
I0
sg63
I5
ssg18
(dp100
g30
I0
sg31
I0
sg20
I0
sssg16
(dp101
g8
(dp102
g45
I4
sg35
I0
sg52
I4
sg36
I0
sg12
I5
sg15
I5
sg55
I4
sg67
I4
ssg18
(dp103
g30
I0
sg31
I0
sg20
I5
sssg17
(dp104
g8
(dp105
g71
I0
sg27
I0
sg72
I0
sg11
I5
sssg63
(dp106
g8
(dp107
g26
I0
sg75
I4
sg45
I4
sg35
I0
sg52
I4
sg27
I0
sg51
I4
sg55
I4
sg76
I4
ssg18
(dp108
g30
I0
sg31
I0
sg20
I5
ssssS'group'
p109
(dp110
g6
(dp111
g8
(dp112
g10
I5
sg11
I1
sg12
I1
sg13
I5
sg14
I0
sg15
I1
sg16
I5
sg17
I5
ssg18
(dp113
g20
I4
sssg10
(dp114
g8
(dp115
g23
I5
sg24
I6
sg25
I6
sg26
I0
sg27
I0
sg15
I5
sg28
I6
ssg18
(dp116
g30
I7
sg31
I5
sg20
I5
sssg11
(dp117
g8
(dp118
g12
I5
sg13
I5
sg34
I6
sg15
I5
sg35
I4
sg36
I6
ssg18
(dp119
g30
I7
sg31
I5
sg20
I5
sssg23
(dp120
g8
(dp121
g40
I0
sg41
I0
ssg18
(dp122
g30
I0
sg20
I0
sg31
I0
sssg13
(dp123
g8
(dp124
g26
I0
sg45
I6
sg35
I0
sg46
I6
sg12
I7
sg27
I0
sg47
I6
sg36
I6
ssg18
(dp125
g30
I7
sg31
I5
sg20
I5
sssg15
(dp126
g8
(dp127
g35
I4
sg26
I0
sg45
I6
sg51
I7
sg52
I6
sg53
I6
sg27
I7
sg54
I6
sg55
I6
ssg18
(dp128
g30
I7
sg31
I5
sg20
I5
sssg12
(dp129
g8
(dp130
g26
I2
sg11
I7
sg35
I4
sg45
I6
sg46
I6
sg59
I2
sg60
I7
sg27
I7
sg15
I7
sg47
I6
sg61
I2
sg62
I2
sg16
I7
sg36
I2
sg63
I7
ssg18
(dp131
g30
I7
sg31
I5
sg20
I5
sssg16
(dp132
g8
(dp133
g45
I6
sg35
I4
sg52
I6
sg36
I4
sg12
I5
sg15
I5
sg55
I6
sg67
I6
ssg18
(dp134
g30
I7
sg31
I5
sg20
I5
sssg17
(dp135
g8
(dp136
g71
I0
sg27
I4
sg72
I0
sg11
I5
sssg63
(dp137
g8
(dp138
g26
I0
sg75
I6
sg45
I6
sg35
I4
sg52
I4
sg27
I0
sg51
I6
sg55
I4
sg76
I6
ssg18
(dp139
g30
I7
sg31
I5
sg20
I5
sssssS'BASE'
p140
(dp141
g4
(dp142
g6
(dp143
g8
(dp144
g10
I7
sg11
I7
sg12
I7
sg13
I7
sg14
I5
sg15
I7
sg16
I7
sg17
I7
ssg18
(dp145
g20
I4
sssg10
(dp146
g8
(dp147
g23
I5
sg24
I6
sg25
I6
sg26
I0
sg27
I0
sg15
I5
sg28
I6
ssg18
(dp148
g30
I7
sg20
I5
sg31
I5
sssg11
(dp149
g8
(dp150
g12
I5
sg13
I5
sg34
I6
sg15
I5
sg35
I0
sg36
I0
ssg18
(dp151
g30
I7
sg20
I5
sg31
I5
sssg12
(dp152
g8
(dp153
g26
I7
sg11
I7
sg35
I0
sg45
I6
sg36
I4
sg59
I2
sg60
I5
sg27
I5
sg15
I7
sg47
I6
sg61
I2
sg62
I2
sg16
I7
sg46
I6
sg63
I7
ssg18
(dp154
g30
I7
sg20
I5
sg31
I5
sssg13
(dp155
g8
(dp156
g26
I7
sg45
I6
sg35
I0
sg36
I4
sg12
I7
sg27
I5
sg47
I6
sg46
I6
ssg18
(dp157
g30
I5
sg20
I5
sg31
I5
sssg15
(dp158
g8
(dp159
g26
I6
sg45
I6
sg35
I4
sg52
I6
sg55
I6
sg53
I6
sg27
I5
sg54
I6
sg51
I5
ssg18
(dp160
g30
I7
sg20
I5
sg31
I5
sssg23
(dp161
g8
(dp162
g40
I6
sg41
I0
ssg18
(dp163
g30
I0
sg20
I5
sg31
I0
sssg16
(dp164
g8
(dp165
g45
I6
sg35
I0
sg52
I6
sg55
I6
sg12
I5
sg15
I5
sg36
I0
sg67
I6
ssg18
(dp166
g30
I7
sg20
I5
sg31
I5
sssg17
(dp167
g8
(dp168
g71
I4
sg27
I4
sg72
I4
sg11
I5
sssg63
(dp169
g8
(dp170
g26
I6
sg75
I6
sg45
I6
sg35
I4
sg52
I6
sg55
I6
sg27
I6
sg51
I6
sg76
I6
ssg18
(dp171
g30
I7
sg20
I5
sg31
I5
ssssg78
(dp172
g6
(dp173
g8
(dp174
g10
I5
sg11
I1
sg12
I1
sg13
I5
sg14
I0
sg15
I1
sg16
I5
sg17
I5
ssg18
(dp175
g20
I4
sssg10
(dp176
g8
(dp177
g23
I0
sg24
I0
sg25
I0
sg26
I0
sg27
I0
sg15
I5
sg28
I0
ssg18
(dp178
g30
I0
sg20
I0
sg31
I0
sssg11
(dp179
g8
(dp180
g12
I5
sg13
I5
sg34
I4
sg15
I5
sg35
I0
sg36
I0
ssg18
(dp181
g30
I0
sg20
I5
sg31
I0
sssg12
(dp182
g8
(dp183
g26
I0
sg11
I5
sg35
I0
sg45
I0
sg36
I0
sg59
I0
sg60
I0
sg27
I0
sg15
I5
sg47
I0
sg61
I0
sg62
I0
sg16
I5
sg46
I0
sg63
I5
ssg18
(dp184
g30
I0
sg20
I0
sg31
I0
sssg13
(dp185
g8
(dp186
g26
I0
sg45
I0
sg35
I0
sg36
I0
sg12
I5
sg27
I0
sg47
I0
sg46
I0
ssg18
(dp187
g30
I0
sg20
I5
sg31
I0
sssg15
(dp188
g8
(dp189
g26
I0
sg45
I4
sg35
I4
sg52
I4
sg55
I4
sg53
I4
sg27
I0
sg54
I4
sg51
I0
ssg18
(dp190
g30
I0
sg20
I5
sg31
I0
sssg23
(dp191
g8
(dp192
g40
I0
sg41
I0
ssg18
(dp193
g30
I0
sg20
I0
sg31
I0
sssg16
(dp194
g8
(dp195
g45
I4
sg35
I0
sg52
I4
sg55
I4
sg12
I5
sg15
I5
sg36
I0
sg67
I4
ssg18
(dp196
g30
I0
sg20
I5
sg31
I0
sssg17
(dp197
g8
(dp198
g71
I0
sg27
I0
sg72
I0
sg11
I5
sssg63
(dp199
g8
(dp200
g26
I0
sg75
I4
sg45
I4
sg35
I0
sg52
I4
sg55
I4
sg27
I0
sg51
I4
sg76
I4
ssg18
(dp201
g30
I0
sg20
I5
sg31
I0
ssssg109
(dp202
g6
(dp203
g8
(dp204
g10
I5
sg11
I1
sg12
I1
sg13
I5
sg14
I0
sg15
I1
sg16
I5
sg17
I5
ssg18
(dp205
g20
I4
sssg10
(dp206
g8
(dp207
g23
I5
sg24
I4
sg25
I4
sg26
I0
sg27
I0
sg15
I5
sg28
I4
ssg18
(dp208
g30
I0
sg20
I5
sg31
I0
sssg11
(dp209
g8
(dp210
g12
I5
sg13
I5
sg34
I4
sg15
I5
sg35
I0
sg36
I0
ssg18
(dp211
g30
I0
sg20
I5
sg31
I0
sssg12
(dp212
g8
(dp213
g26
I0
sg11
I5
sg35
I0
sg45
I4
sg36
I0
sg59
I0
sg60
I5
sg27
I5
sg15
I5
sg47
I4
sg61
I0
sg62
I0
sg16
I5
sg46
I4
sg63
I5
ssg18
(dp214
g30
I0
sg20
I5
sg31
I0
sssg13
(dp215
g8
(dp216
g26
I0
sg45
I4
sg35
I0
sg36
I0
sg12
I5
sg27
I0
sg47
I4
sg46
I4
ssg18
(dp217
g30
I0
sg20
I5
sg31
I0
sssg15
(dp218
g8
(dp219
g26
I0
sg45
I4
sg35
I4
sg52
I4
sg55
I4
sg53
I4
sg27
I5
sg54
I4
sg51
I5
ssg18
(dp220
g30
I0
sg20
I5
sg31
I0
sssg23
(dp221
g8
(dp222
g40
I0
sg41
I0
ssg18
(dp223
g30
I0
sg20
I0
sg31
I0
sssg16
(dp224
g8
(dp225
g45
I4
sg35
I0
sg52
I4
sg55
I4
sg12
I5
sg15
I5
sg36
I0
sg67
I4
ssg18
(dp226
g30
I0
sg20
I5
sg31
I0
sssg17
(dp227
g8
(dp228
g71
I0
sg27
I4
sg72
I0
sg11
I5
sssg63
(dp229
g8
(dp230
g26
I0
sg75
I4
sg45
I4
sg35
I0
sg52
I4
sg55
I4
sg27
I0
sg51
I4
sg76
I4
ssg18
(dp231
g30
I0
sg20
I5
sg31
I0
sssssS'visd-staff'
p232
(dp233
g4
(dp234
g6
(dp235
g8
(dp236
g10
I7
sg11
I7
sg12
I7
sg13
I7
sg14
I5
sg15
I7
sg16
I7
sg17
I7
ssg18
(dp237
g20
I4
sssg10
(dp238
g8
(dp239
g23
I5
sg24
I6
sg25
I6
sg26
I0
sg27
I0
sg15
I5
sg28
I6
ssg18
(dp240
g30
I7
sg31
I5
sg20
I5
sssg11
(dp241
g8
(dp242
g12
I5
sg13
I5
sg34
I6
sg15
I5
sg35
I0
sg36
I0
ssg18
(dp243
g30
I7
sg31
I5
sg20
I5
sssg23
(dp244
g8
(dp245
g40
I6
sg41
I0
ssg18
(dp246
g30
I0
sg20
I5
sg31
I0
sssg13
(dp247
g8
(dp248
g26
I7
sg45
I6
sg35
I0
sg46
I6
sg12
I7
sg27
I5
sg47
I6
sg36
I4
ssg18
(dp249
g30
I5
sg31
I5
sg20
I5
sssg15
(dp250
g8
(dp251
g35
I4
sg26
I6
sg45
I6
sg51
I5
sg52
I6
sg53
I6
sg27
I5
sg54
I6
sg55
I6
ssg18
(dp252
g30
I7
sg31
I5
sg20
I5
sssg12
(dp253
g8
(dp254
g26
I7
sg11
I7
sg35
I0
sg45
I6
sg46
I6
sg59
I2
sg60
I5
sg27
I5
sg15
I7
sg47
I6
sg61
I2
sg62
I2
sg16
I7
sg36
I4
sg63
I7
ssg18
(dp255
g30
I7
sg31
I5
sg20
I5
sssg16
(dp256
g8
(dp257
g45
I6
sg35
I0
sg52
I6
sg36
I0
sg12
I5
sg15
I5
sg55
I6
sg67
I6
ssg18
(dp258
g30
I7
sg31
I5
sg20
I5
sssg17
(dp259
g8
(dp260
g71
I4
sg27
I4
sg72
I4
sg11
I5
sssg63
(dp261
g8
(dp262
g26
I6
sg75
I6
sg45
I6
sg35
I4
sg52
I6
sg27
I6
sg51
I6
sg55
I6
sg76
I6
ssg18
(dp263
g30
I7
sg31
I5
sg20
I5
ssssg78
(dp264
g6
(dp265
g8
(dp266
g10
I5
sg11
I1
sg12
I1
sg13
I5
sg14
I0
sg15
I1
sg16
I5
sg17
I5
ssg18
(dp267
g20
I4
sssg10
(dp268
g8
(dp269
g23
I0
sg24
I0
sg25
I0
sg26
I0
sg27
I0
sg15
I5
sg28
I0
ssg18
(dp270
g30
I0
sg31
I0
sg20
I0
sssg11
(dp271
g8
(dp272
g12
I5
sg13
I5
sg34
I4
sg15
I5
sg35
I0
sg36
I0
ssg18
(dp273
g30
I0
sg31
I0
sg20
I5
sssg23
(dp274
g8
(dp275
g40
I0
sg41
I0
ssg18
(dp276
g30
I0
sg20
I0
sg31
I0
sssg13
(dp277
g8
(dp278
g26
I0
sg45
I0
sg35
I0
sg46
I0
sg12
I5
sg27
I0
sg47
I0
sg36
I0
ssg18
(dp279
g30
I0
sg31
I0
sg20
I5
sssg15
(dp280
g8
(dp281
g35
I4
sg26
I0
sg45
I4
sg51
I0
sg52
I4
sg53
I4
sg27
I0
sg54
I4
sg55
I4
ssg18
(dp282
g30
I0
sg31
I0
sg20
I5
sssg12
(dp283
g8
(dp284
g26
I0
sg11
I5
sg35
I0
sg45
I0
sg46
I0
sg59
I0
sg60
I0
sg27
I0
sg15
I5
sg47
I0
sg61
I0
sg62
I0
sg16
I5
sg36
I0
sg63
I5
ssg18
(dp285
g30
I0
sg31
I0
sg20
I0
sssg16
(dp286
g8
(dp287
g45
I4
sg35
I0
sg52
I4
sg36
I0
sg12
I5
sg15
I5
sg55
I4
sg67
I4
ssg18
(dp288
g30
I0
sg31
I0
sg20
I5
sssg17
(dp289
g8
(dp290
g71
I0
sg27
I0
sg72
I0
sg11
I5
sssg63
(dp291
g8
(dp292
g26
I0
sg75
I4
sg45
I4
sg35
I0
sg52
I4
sg27
I0
sg51
I4
sg55
I4
sg76
I4
ssg18
(dp293
g30
I0
sg31
I0
sg20
I5
ssssg109
(dp294
g6
(dp295
g8
(dp296
g10
I5
sg11
I1
sg12
I1
sg13
I5
sg14
I0
sg15
I1
sg16
I5
sg17
I5
ssg18
(dp297
g20
I4
sssg10
(dp298
g8
(dp299
g23
I5
sg24
I6
sg25
I6
sg26
I0
sg27
I0
sg15
I5
sg28
I6
ssg18
(dp300
g30
I7
sg31
I5
sg20
I5
sssg11
(dp301
g8
(dp302
g12
I5
sg13
I5
sg34
I6
sg15
I5
sg35
I4
sg36
I6
ssg18
(dp303
g30
I7
sg31
I5
sg20
I5
sssg23
(dp304
g8
(dp305
g40
I0
sg41
I0
ssg18
(dp306
g30
I0
sg20
I0
sg31
I0
sssg13
(dp307
g8
(dp308
g26
I0
sg45
I6
sg35
I0
sg46
I6
sg12
I7
sg27
I0
sg47
I6
sg36
I6
ssg18
(dp309
g30
I7
sg31
I5
sg20
I5
sssg15
(dp310
g8
(dp311
g35
I4
sg26
I0
sg45
I6
sg51
I7
sg52
I6
sg53
I6
sg27
I7
sg54
I6
sg55
I6
ssg18
(dp312
g30
I7
sg31
I5
sg20
I5
sssg12
(dp313
g8
(dp314
g26
I2
sg11
I7
sg35
I4
sg45
I6
sg46
I6
sg59
I2
sg60
I7
sg27
I7
sg15
I7
sg47
I6
sg61
I2
sg62
I2
sg16
I7
sg36
I2
sg63
I7
ssg18
(dp315
g30
I7
sg31
I5
sg20
I5
sssg16
(dp316
g8
(dp317
g45
I6
sg35
I4
sg52
I6
sg36
I4
sg12
I5
sg15
I5
sg55
I6
sg67
I6
ssg18
(dp318
g30
I7
sg31
I5
sg20
I5
sssg17
(dp319
g8
(dp320
g71
I0
sg27
I4
sg72
I0
sg11
I5
sssg63
(dp321
g8
(dp322
g26
I0
sg75
I6
sg45
I6
sg35
I4
sg52
I4
sg27
I0
sg51
I6
sg55
I4
sg76
I6
ssg18
(dp323
g30
I7
sg31
I5
sg20
I5
sssss.