(dp1
S'index'
p2
(dp3
S'memberships'
p4
(dp5
S'fields'
p6
(dp7
S'name'
p8
S'-'
sS'parent'
p9
S'o'
ssS'methods'
p10
(dp11
S'PUT'
p12
S'-'
sS'GET'
p13
S'-'
sS'DELETE'
p14
S'-'
sssg10
(dp15
g13
S'-'
ssS'tags'
p16
(dp17
g6
(dp18
S'group'
p19
S'o'
sS'created_at'
p20
S'-'
sS'challenges'
p21
S'm'
sS'skillsets'
p22
S'm'
sS'user'
p23
S'o'
sS'entries'
p24
S'm'
sS'word'
p25
S'-'
sS'slug'
p26
S'-'
ssg10
(dp27
g12
S'-'
sg13
S'-'
sg14
S'-'
sssg6
(dp28
S'users'
p29
S'm'
sg16
S'm'
sg21
S'm'
sg22
S'm'
sS'groups'
p30
S'm'
sg24
S'm'
sS'tools'
p31
S'm'
sS'events'
p32
S'm'
ssg21
(dp33
g6
(dp34
g19
S'o'
sg16
S'm'
sg20
S'-'
sS'title'
p35
S'-'
sg26
S'-'
sS'skillset_id'
p36
S'-'
sS'skillset'
p37
S'p'
sg23
S'o'
sg24
S'm'
sS'short_description'
p38
S'-'
sS'user_id'
p39
S'-'
sS'group_id'
p40
S'-'
sg31
S'm'
sS'long_description'
p41
S'-'
sS'resources'
p42
S'm'
ssg10
(dp43
g12
S'-'
sg13
S'-'
sg14
S'-'
sssg22
(dp44
g6
(dp45
g19
S'o'
sg35
S'-'
sg20
S'-'
sg26
S'-'
sg21
S'm'
sg23
S'o'
sg38
S'-'
sg41
S'-'
ssg10
(dp46
g12
S'-'
sg13
S'-'
sg14
S'-'
sssg24
(dp47
g6
(dp48
g19
S'o'
sg35
S'-'
sS'challenge'
p49
S'p'
sS'url_link'
p50
S'-'
sS'url_title'
p51
S'-'
sS'caption'
p52
S'-'
sg23
S'o'
sS'image'
p53
S'-'
sg20
S'-'
ssg10
(dp54
g12
S'-'
sg13
S'-'
sg14
S'-'
sssg31
(dp55
g6
(dp56
g19
S'o'
sg35
S'-'
sg20
S'-'
sg50
S'-'
sg51
S'-'
sg21
S'm'
sg23
S'o'
sg24
S'm'
sg26
S'-'
sS'icon'
p57
S'-'
ssg10
(dp58
g12
S'-'
sg13
S'-'
sg14
S'-'
sssg32
(dp59
g6
(dp60
S'created'
p61
S'-'
sg23
S'-'
sS'modified'
p62
S'-'
sg16
S'-'
sssg42
(dp63
g6
(dp64
g19
S'o'
sS'thumb'
p65
S'-'
sg35
S'-'
sg20
S'-'
sg50
S'-'
sg51
S'-'
sg23
S'o'
sg49
S'p'
sS'description'
p66
S'-'
ssg10
(dp67
g12
S'-'
sg13
S'-'
sg14
S'-'
sssg29
(dp68
g6
(dp69
S'first_name'
p70
S'-'
sS'last_name'
p71
S'-'
sg19
S'o'
sg4
S'm'
sg23
S'o'
sg24
S'm'
sS'email'
p72
S'-'
ssg10
(dp73
g12
S'-'
sg13
S'-'
sg14
S'-'
ssss.