(dp1
S'index'
p2
(dp3
S'fields'
p4
(dp5
S'users'
p6
S'm'
sS'tags'
p7
S'm'
sS'challenges'
p8
S'm'
sS'skillsets'
p9
S'm'
sS'groups'
p10
S'm'
sS'entries'
p11
S'm'
sS'tools'
p12
S'm'
sS'events'
p13
S'm'
ssS'methods'
p14
(dp15
S'GET'
p16
S'-'
sssS'memberships'
p17
(dp18
g4
(dp19
S'name'
p20
S'-'
sS'parent'
p21
S'o'
ssg14
(dp22
S'PUT'
p23
S'-'
sg16
S'-'
sS'DELETE'
p24
S'-'
sssg7
(dp25
g4
(dp26
S'group'
p27
S'o'
sS'created_at'
p28
S'-'
sg8
S'm'
sg9
S'm'
sS'user'
p29
S'o'
sg11
S'm'
sS'word'
p30
S'-'
sS'slug'
p31
S'-'
ssg14
(dp32
g23
S'-'
sg16
S'-'
sg24
S'-'
sssg8
(dp33
g4
(dp34
g27
S'o'
sg7
S'm'
sg28
S'-'
sS'title'
p35
S'-'
sg31
S'-'
sS'skillset_id'
p36
S'-'
sS'skillset'
p37
S'p'
sg29
S'o'
sg11
S'm'
sS'short_description'
p38
S'-'
sS'user_id'
p39
S'-'
sS'group_id'
p40
S'-'
sg12
S'm'
sS'long_description'
p41
S'-'
sS'resources'
p42
S'm'
ssg14
(dp43
g23
S'-'
sg16
S'-'
sg24
S'-'
sssg9
(dp44
g4
(dp45
g27
S'o'
sg35
S'-'
sg28
S'-'
sg31
S'-'
sg8
S'm'
sg29
S'o'
sg38
S'-'
sg41
S'-'
ssg14
(dp46
g23
S'-'
sg16
S'-'
sg24
S'-'
sssg11
(dp47
g4
(dp48
g27
S'o'
sg35
S'-'
sS'challenge'
p49
S'p'
sS'url_link'
p50
S'-'
sS'url_title'
p51
S'-'
sS'caption'
p52
S'-'
sg29
S'o'
sS'image'
p53
S'-'
sg28
S'-'
ssg14
(dp54
g23
S'-'
sg16
S'-'
sg24
S'-'
sssg12
(dp55
g4
(dp56
g27
S'o'
sg35
S'-'
sg28
S'-'
sg50
S'-'
sg51
S'-'
sg8
S'm'
sg29
S'o'
sg11
S'm'
sg31
S'-'
sS'icon'
p57
S'-'
ssg14
(dp58
g23
S'-'
sg16
S'-'
sg24
S'-'
sssg13
(dp59
g4
(dp60
S'created'
p61
S'-'
sg29
S'-'
sS'modified'
p62
S'-'
sg7
S'-'
sssg42
(dp63
g4
(dp64
g27
S'o'
sS'thumb'
p65
S'-'
sg35
S'-'
sg28
S'-'
sg50
S'-'
sg51
S'-'
sg29
S'o'
sg49
S'p'
sS'description'
p66
S'-'
ssg14
(dp67
g23
S'-'
sg16
S'-'
sg24
S'-'
sssg6
(dp68
g4
(dp69
S'first_name'
p70
S'-'
sS'last_name'
p71
S'-'
sg27
S'o'
sg17
S'm'
sg29
S'o'
sg11
S'm'
sS'email'
p72
S'-'
ssg14
(dp73
g23
S'-'
sg16
S'-'
sg24
S'-'
sss.